; Function Attrs: nounwind uwtable
define void @Gia_GlaAddToAbs(ptr noundef captures(none) %0, ptr noundef captures(none) %1, i32 noundef %2) local_unnamed_addr #0 {
  %4 = getelementptr i8, ptr %1, i64 4
  %.val31 = load i32, ptr %4, align 4, !tbaa !3
  %5 = icmp sgt i32 %.val31, 0
  br i1 %5, label %.lr.ph, label %.critedge

.lr.ph:                                           ; preds = %3
  %6 = getelementptr i8, ptr %1, i64 8
  %7 = getelementptr i8, ptr %0, i64 40
  %.not = icmp eq i32 %2, 0
  %8 = getelementptr inbounds nuw i8, ptr %0, i64 88
  %9 = getelementptr inbounds nuw i8, ptr %0, i64 128
  %10 = getelementptr inbounds nuw i8, ptr %0, i64 136
  %11 = getelementptr inbounds nuw i8, ptr %0, i64 24
  %.val25.pre = load ptr, ptr %6, align 8, !tbaa !11
  br label %12

12:                                               ; preds = %.lr.ph, %85
  %.val25 = phi ptr [ %.val25.pre, %.lr.ph ], [ %.val2535, %85 ]
  %indvars.iv = phi i64 [ 0, %.lr.ph ], [ %indvars.iv.next, %85 ]
  %.033 = phi i32 [ 0, %.lr.ph ], [ %.1, %85 ]
  %13 = getelementptr inbounds nuw i32, ptr %.val25, i64 %indvars.iv
  %14 = load i32, ptr %13, align 4, !tbaa !22
  %.not.i = icmp eq i32 %14, 0
  br i1 %.not.i, label %Gla_ManObj.exit, label %15

15:                                               ; preds = %12
  %16 = load ptr, ptr %7, align 8, !tbaa !23
  %17 = sext i32 %14 to i64
  %18 = getelementptr inbounds %struct.Gla_Obj_t_, ptr %16, i64 %17
  br label %Gla_ManObj.exit

Gla_ManObj.exit:                                  ; preds = %12, %15
  %19 = phi ptr [ %18, %15 ], [ null, %12 ]
  br i1 %.not, label %35, label %20

20:                                               ; preds = %Gla_ManObj.exit
  %21 = load ptr, ptr %8, align 8, !tbaa !53
  %22 = getelementptr inbounds nuw i8, ptr %21, i64 488
  %23 = load ptr, ptr %22, align 8, !tbaa !208
  %.not23 = icmp eq ptr %23, null
  br i1 %.not23, label %35, label %24

24:                                               ; preds = %20
  %25 = load ptr, ptr %9, align 8, !tbaa !150
  %.val30 = load ptr, ptr %7, align 8, !tbaa !23
  %26 = ptrtoint ptr %19 to i64
  %27 = ptrtoint ptr %.val30 to i64
  %28 = sub i64 %26, %27
  %29 = sdiv exact i64 %28, 40
  %30 = load i32, ptr %10, align 8, !tbaa !209
  %31 = add nsw i32 %30, 1
  store i32 %31, ptr %10, align 8, !tbaa !209
  %32 = getelementptr i8, ptr %25, i64 8
  %.val27 = load ptr, ptr %32, align 8, !tbaa !11
  %sext = shl i64 %29, 32
  %33 = ashr exact i64 %sext, 30
  %34 = getelementptr inbounds i8, ptr %.val27, i64 %33
  store i32 %30, ptr %34, align 4, !tbaa !22
  br label %35

35:                                               ; preds = %20, %24, %Gla_ManObj.exit
  %36 = getelementptr inbounds nuw i8, ptr %19, i64 4
  %37 = load i32, ptr %36, align 4
  %38 = and i32 %37, 1
  %.not24 = icmp eq i32 %38, 0
  br i1 %.not24, label %39, label %85

39:                                               ; preds = %35
  %40 = or disjoint i32 %37, 1
  store i32 %40, ptr %36, align 4
  %41 = load ptr, ptr %11, align 8, !tbaa !12
  %.val29 = load ptr, ptr %7, align 8, !tbaa !23
  %42 = ptrtoint ptr %19 to i64
  %43 = ptrtoint ptr %.val29 to i64
  %44 = sub i64 %42, %43
  %45 = sdiv exact i64 %44, 40
  %46 = trunc i64 %45 to i32
  %47 = getelementptr inbounds nuw i8, ptr %41, i64 4
  %48 = load i32, ptr %47, align 4, !tbaa !3
  %49 = load i32, ptr %41, align 8, !tbaa !10
  %50 = icmp eq i32 %48, %49
  br i1 %50, label %51, label %.Vec_IntGrow.exit10_crit_edge.i

.Vec_IntGrow.exit10_crit_edge.i:                  ; preds = %39
  %.phi.trans.insert.i = getelementptr inbounds nuw i8, ptr %41, i64 8
  %.pre.i = load ptr, ptr %.phi.trans.insert.i, align 8, !tbaa !11
  br label %Vec_IntPush.exit

51:                                               ; preds = %39
  %52 = icmp slt i32 %48, 16
  br i1 %52, label %53, label %61

53:                                               ; preds = %51
  %54 = getelementptr inbounds nuw i8, ptr %41, i64 8
  %55 = load ptr, ptr %54, align 8, !tbaa !11
  %.not9.i.i = icmp eq ptr %55, null
  br i1 %.not9.i.i, label %58, label %56

56:                                               ; preds = %53
  %57 = tail call dereferenceable_or_null(64) ptr @realloc(ptr noundef nonnull %55, i64 noundef 64) #28
  br label %Vec_IntGrow.exit.i

58:                                               ; preds = %53
  %59 = tail call noalias dereferenceable_or_null(64) ptr @malloc(i64 noundef 64) #27
  br label %Vec_IntGrow.exit.i

Vec_IntGrow.exit.i:                               ; preds = %58, %56
  %60 = phi ptr [ %57, %56 ], [ %59, %58 ]
  store ptr %60, ptr %54, align 8, !tbaa !11
  store i32 16, ptr %41, align 8, !tbaa !10
  br label %Vec_IntPush.exit

61:                                               ; preds = %51
  %62 = shl nuw nsw i32 %48, 1
  %63 = getelementptr inbounds nuw i8, ptr %41, i64 8
  %64 = load ptr, ptr %63, align 8, !tbaa !11
  %.not9.i9.i = icmp eq ptr %64, null
  %65 = zext nneg i32 %62 to i64
  %66 = shl nuw nsw i64 %65, 2
  br i1 %.not9.i9.i, label %69, label %67

67:                                               ; preds = %61
  %68 = tail call ptr @realloc(ptr noundef nonnull %64, i64 noundef %66) #28
  br label %71

69:                                               ; preds = %61
  %70 = tail call noalias ptr @malloc(i64 noundef %66) #27
  br label %71

71:                                               ; preds = %69, %67
  %72 = phi ptr [ %68, %67 ], [ %70, %69 ]
  store ptr %72, ptr %63, align 8, !tbaa !11
  store i32 %62, ptr %41, align 8, !tbaa !10
  br label %Vec_IntPush.exit

Vec_IntPush.exit:                                 ; preds = %.Vec_IntGrow.exit10_crit_edge.i, %Vec_IntGrow.exit.i, %71
  %73 = phi ptr [ %.pre.i, %.Vec_IntGrow.exit10_crit_edge.i ], [ %72, %71 ], [ %60, %Vec_IntGrow.exit.i ]
  %74 = load i32, ptr %47, align 4, !tbaa !3
  %75 = add nsw i32 %74, 1
  store i32 %75, ptr %47, align 4, !tbaa !3
  %76 = sext i32 %74 to i64
  %77 = getelementptr inbounds i32, ptr %73, i64 %76
  store i32 %46, ptr %77, align 4, !tbaa !22
  %78 = add nsw i32 %.033, 1
  %.val28 = load ptr, ptr %7, align 8, !tbaa !23
  %79 = ptrtoint ptr %.val28 to i64
  %80 = sub i64 %42, %79
  %81 = sdiv exact i64 %80, 40
  %82 = trunc i64 %81 to i32
  %.val26 = load ptr, ptr %6, align 8, !tbaa !11
  %83 = sext i32 %.033 to i64
  %84 = getelementptr inbounds i32, ptr %.val26, i64 %83
  store i32 %82, ptr %84, align 4, !tbaa !22
  br label %85

85:                                               ; preds = %35, %Vec_IntPush.exit
  %.val2535 = phi ptr [ %.val25, %35 ], [ %.val26, %Vec_IntPush.exit ]
  %.1 = phi i32 [ %.033, %35 ], [ %78, %Vec_IntPush.exit ]
  %indvars.iv.next = add nuw nsw i64 %indvars.iv, 1
  %.val = load i32, ptr %4, align 4, !tbaa !3
  %86 = sext i32 %.val to i64
  %87 = icmp slt i64 %indvars.iv.next, %86
  br i1 %87, label %12, label %.critedge, !llvm.loop !210

.critedge:                                        ; preds = %85, %3
  %.0.lcssa = phi i32 [ 0, %3 ], [ %.1, %85 ]
  store i32 %.0.lcssa, ptr %4, align 4, !tbaa !3
  ret void
}